target datalayout = "e-m:e-p270:32:32-p271:32:32-p272:64:64-i64:64-i128:128-f80:128-n8:16:32:64-S128"
target triple = "x86_64-pc-linux-gnu"

%"class.std::__cxx11::basic_string" = type { %"struct.std::__cxx11::basic_string<char>::_Alloc_hider", i64, %union.anon }
%"struct.std::__cxx11::basic_string<char>::_Alloc_hider" = type { ptr }
%union.anon = type { i64, [8 x i8] }
%"class.gmx::TrajectoryFileOpener" = type { %"class.std::__cxx11::basic_string", ptr, i32, ptr, ptr }

; Function Attrs: mustprogress nounwind uwtable
define void @_ZN3gmx20TrajectoryFileOpenerD2Ev(ptr noundef nonnull align 8 dereferenceable(64) %0) unnamed_addr #1 align 2 personality ptr @__gxx_personality_v0 {
  %2 = alloca ptr, align 8
  store ptr %0, ptr %2, align 8
  %3 = load ptr, ptr %2, align 8
  %4 = getelementptr inbounds %"class.gmx::TrajectoryFileOpener", ptr %3, i32 0, i32 1
  %5 = load ptr, ptr %4, align 8
  invoke void @_Z9close_trxP11t_trxstatus(ptr noundef %5)
          to label %6 unwind label %8

6:                                                ; preds = %1
  %7 = getelementptr inbounds %"class.gmx::TrajectoryFileOpener", ptr %3, i32 0, i32 0
  call void @_ZNSt7__cxx1112basic_stringIcSt11char_traitsIcESaIcEED1Ev(ptr noundef nonnull align 8 dereferenceable(32) %7) #11
  ret void

8:                                                ; preds = %1
  %9 = landingpad { ptr, i32 }
          catch ptr null
  %10 = extractvalue { ptr, i32 } %9, 0
  call void @__clang_call_terminate(ptr %10) #15
  unreachable
}